; Function Attrs: mustprogress nofree norecurse nosync nounwind memory(readwrite, inaccessiblemem: none) uwtable
define hidden void @_ZNK5ceres8internal7Program28ParameterBlocksToStateVectorEPd(ptr noundef nonnull readonly align 8 captures(none) dereferenceable(56) %0, ptr noundef writeonly captures(address) %1) local_unnamed_addr #7 align 2 {
  %3 = load ptr, ptr %0, align 8, !tbaa !19
  %4 = getelementptr inbounds nuw i8, ptr %0, i64 8
  %5 = load ptr, ptr %4, align 8, !tbaa !19
  %.not10 = icmp eq ptr %3, %5
  br i1 %.not10, label %._crit_edge, label %.lr.ph

._crit_edge:                                      ; preds = %_ZNK5ceres8internal14ParameterBlock8GetStateEPd.exit, %2
  ret void

.lr.ph:                                           ; preds = %2, %_ZNK5ceres8internal14ParameterBlock8GetStateEPd.exit
  %.012 = phi ptr [ %17, %_ZNK5ceres8internal14ParameterBlock8GetStateEPd.exit ], [ %1, %2 ]
  %.sroa.07.011 = phi ptr [ %18, %_ZNK5ceres8internal14ParameterBlock8GetStateEPd.exit ], [ %3, %2 ]
  %6 = load ptr, ptr %.sroa.07.011, align 8, !tbaa !20
  %7 = getelementptr inbounds nuw i8, ptr %6, i64 24
  %8 = load ptr, ptr %7, align 8, !tbaa !50
  %.not.i = icmp eq ptr %.012, %8
  br i1 %.not.i, label %_ZNK5ceres8internal14ParameterBlock8GetStateEPd.exit, label %9

9:                                                ; preds = %.lr.ph
  %10 = getelementptr inbounds nuw i8, ptr %6, i64 8
  %11 = load i32, ptr %10, align 8, !tbaa !44
  %.not.i.i.i.i.i.i = icmp eq i32 %11, 0
  br i1 %.not.i.i.i.i.i.i, label %_ZNK5ceres8internal14ParameterBlock8GetStateEPd.exit, label %12

12:                                               ; preds = %9
  %13 = sext i32 %11 to i64
  %.idx.i = shl nsw i64 %13, 3
  tail call void @llvm.memmove.p0.p0.i64(ptr align 8 %.012, ptr align 8 %8, i64 %.idx.i, i1 false)
  br label %_ZNK5ceres8internal14ParameterBlock8GetStateEPd.exit

_ZNK5ceres8internal14ParameterBlock8GetStateEPd.exit: ; preds = %.lr.ph, %9, %12
  %14 = getelementptr inbounds nuw i8, ptr %6, i64 8
  %15 = load i32, ptr %14, align 8, !tbaa !44
  %16 = sext i32 %15 to i64
  %17 = getelementptr inbounds double, ptr %.012, i64 %16
  %18 = getelementptr inbounds nuw i8, ptr %.sroa.07.011, i64 8
  %.not = icmp eq ptr %18, %5
  br i1 %.not, label %._crit_edge, label %.lr.ph
}